; Function Attrs: mustprogress uwtable
define dso_local void @_ZN4Luau5toDotB5cxx11EPKNS_4TypeE(ptr dead_on_unwind noalias writable sret(%"class.std::__cxx11::basic_string") align 8 %0, ptr noundef %1) local_unnamed_addr #2 {
  %3 = alloca %"struct.Luau::ToDotOptions", align 1
  call void @llvm.lifetime.start.p0(i64 2, ptr nonnull %3) #17
  store i8 1, ptr %3, align 1, !tbaa !109
  %4 = getelementptr inbounds nuw i8, ptr %3, i64 1
  store i8 1, ptr %4, align 1, !tbaa !110
  call void @_ZN4Luau5toDotB5cxx11EPKNS_4TypeERKNS_12ToDotOptionsE(ptr dead_on_unwind writable sret(%"class.std::__cxx11::basic_string") align 8 %0, ptr noundef %1, ptr noundef nonnull align 1 dereferenceable(2) %3)
  call void @llvm.lifetime.end.p0(i64 2, ptr nonnull %3) #17
  ret void
}